; Function Attrs: mustprogress uwtable
define hidden noundef ptr @_ZN3smt15model_generator20mk_extra_fresh_valueEP4sort(ptr noundef nonnull align 8 dereferenceable(104) %this, ptr noundef %s) local_unnamed_addr #3 align 2 {
entry:
  %call = tail call noalias noundef ptr @_ZN6memory8allocateEm(i64 noundef 24)
  %m_fresh_idx = getelementptr inbounds i8, ptr %this, i64 24
  %0 = load i32, ptr %m_fresh_idx, align 8
  store ptr %s, ptr %call, align 8
  %m_idx.i = getelementptr inbounds i8, ptr %call, i64 8
  store i32 %0, ptr %m_idx.i, align 8
  %m_value.i = getelementptr inbounds i8, ptr %call, i64 16
  store ptr null, ptr %m_value.i, align 8
  %inc = add i32 %0, 1
  store i32 %inc, ptr %m_fresh_idx, align 8
  %m_extra_fresh_values = getelementptr inbounds i8, ptr %this, i64 16
  %1 = load ptr, ptr %m_extra_fresh_values, align 8
  %cmp.i = icmp eq ptr %1, null
  br i1 %cmp.i, label %if.then.i, label %lor.lhs.false.i

lor.lhs.false.i:                                  ; preds = %entry
  %arrayidx.i = getelementptr inbounds i8, ptr %1, i64 -4
  %2 = load i32, ptr %arrayidx.i, align 4
  %arrayidx4.i = getelementptr inbounds i8, ptr %1, i64 -8
  %3 = load i32, ptr %arrayidx4.i, align 4
  %cmp5.i = icmp eq i32 %2, %3
  br i1 %cmp5.i, label %if.then.i, label %_ZN6vectorIPN3smt17extra_fresh_valueELb0EjE9push_backERKS2_.exit

if.then.i:                                        ; preds = %lor.lhs.false.i, %entry
  tail call void @_ZN6vectorIPN3smt17extra_fresh_valueELb0EjE13expand_vectorEv(ptr noundef nonnull align 8 dereferenceable(8) %m_extra_fresh_values)
  %.pre.i = load ptr, ptr %m_extra_fresh_values, align 8
  %arrayidx8.phi.trans.insert.i = getelementptr inbounds i8, ptr %.pre.i, i64 -4
  %.pre1.i = load i32, ptr %arrayidx8.phi.trans.insert.i, align 4
  br label %_ZN6vectorIPN3smt17extra_fresh_valueELb0EjE9push_backERKS2_.exit

_ZN6vectorIPN3smt17extra_fresh_valueELb0EjE9push_backERKS2_.exit: ; preds = %lor.lhs.false.i, %if.then.i
  %4 = phi i32 [ %.pre1.i, %if.then.i ], [ %2, %lor.lhs.false.i ]
  %5 = phi ptr [ %.pre.i, %if.then.i ], [ %1, %lor.lhs.false.i ]
  %idx.ext.i = zext i32 %4 to i64
  %add.ptr.i = getelementptr inbounds ptr, ptr %5, i64 %idx.ext.i
  store ptr %call, ptr %add.ptr.i, align 8
  %6 = load ptr, ptr %m_extra_fresh_values, align 8
  %arrayidx10.i = getelementptr inbounds i8, ptr %6, i64 -4
  %7 = load i32, ptr %arrayidx10.i, align 4
  %inc.i = add i32 %7, 1
  store i32 %inc.i, ptr %arrayidx10.i, align 4
  ret ptr %call
}